target datalayout = "e-m:e-p270:32:32-p271:32:32-p272:64:64-i64:64-i128:128-f80:128-n8:16:32:64-S128"
target triple = "x86_64-pc-linux-gnu"

%struct.AVAudioFifo = type { ptr, i32, i32, i32, i32, i32, i32 }

; Function Attrs: nounwind uwtable
define i32 @av_audio_fifo_size(ptr noundef %0) #0 {
  %2 = alloca ptr, align 8
  store ptr %0, ptr %2, align 8, !tbaa !4
  %3 = load ptr, ptr %2, align 8, !tbaa !4
  %4 = getelementptr inbounds nuw %struct.AVAudioFifo, ptr %3, i32 0, i32 2
  %5 = load i32, ptr %4, align 4, !tbaa !31
  ret i32 %5
}

; Function Attrs: nounwind uwtable
define i32 @av_audio_fifo_space(ptr noundef %0) #0 {
  %2 = alloca ptr, align 8
  store ptr %0, ptr %2, align 8, !tbaa !4
  %3 = load ptr, ptr %2, align 8, !tbaa !4
  %4 = getelementptr inbounds nuw %struct.AVAudioFifo, ptr %3, i32 0, i32 3
  %5 = load i32, ptr %4, align 8, !tbaa !24
  %6 = load ptr, ptr %2, align 8, !tbaa !4
  %7 = getelementptr inbounds nuw %struct.AVAudioFifo, ptr %6, i32 0, i32 2
  %8 = load i32, ptr %7, align 4, !tbaa !31
  %9 = sub nsw i32 %5, %8
  ret i32 %9
}

; Function Attrs: nounwind uwtable
define i32 @av_audio_fifo_write(ptr noundef %0, ptr noundef %1, i32 noundef %2) #0 {
  %4 = alloca i32, align 4
  %5 = alloca ptr, align 8
  %6 = alloca ptr, align 8
  %7 = alloca i32, align 4
  %8 = alloca i32, align 4
  %9 = alloca i32, align 4
  %10 = alloca i32, align 4
  %11 = alloca i32, align 4
  %12 = alloca i32, align 4
  store ptr %0, ptr %5, align 8, !tbaa !4
  store ptr %1, ptr %6, align 8, !tbaa !28
  store i32 %2, ptr %7, align 4, !tbaa !14
  call void @llvm.lifetime.start.p0(i64 4, ptr %8) #3
  call void @llvm.lifetime.start.p0(i64 4, ptr %9) #3
  call void @llvm.lifetime.start.p0(i64 4, ptr %10) #3
  %13 = load ptr, ptr %5, align 8, !tbaa !4
  %14 = call i32 @av_audio_fifo_space(ptr noundef %13)
  %15 = load i32, ptr %7, align 4, !tbaa !14
  %16 = icmp slt i32 %14, %15
  br i1 %16, label %17, label %39

17:                                               ; preds = %3
  call void @llvm.lifetime.start.p0(i64 4, ptr %11) #3
  %18 = load ptr, ptr %5, align 8, !tbaa !4
  %19 = call i32 @av_audio_fifo_size(ptr noundef %18)
  store i32 %19, ptr %11, align 4, !tbaa !14
  %20 = load i32, ptr %11, align 4, !tbaa !14
  %21 = sub nsw i32 1073741823, %20
  %22 = load i32, ptr %7, align 4, !tbaa !14
  %23 = icmp slt i32 %21, %22
  br i1 %23, label %24, label %25

24:                                               ; preds = %17
  store i32 -22, ptr %4, align 4
  store i32 1, ptr %12, align 4
  br label %36

25:                                               ; preds = %17
  %26 = load ptr, ptr %5, align 8, !tbaa !4
  %27 = load i32, ptr %11, align 4, !tbaa !14
  %28 = load i32, ptr %7, align 4, !tbaa !14
  %29 = add nsw i32 %27, %28
  %30 = mul nsw i32 2, %29
  %31 = call i32 @av_audio_fifo_realloc(ptr noundef %26, i32 noundef %30)
  store i32 %31, ptr %9, align 4, !tbaa !14
  %32 = icmp slt i32 %31, 0
  br i1 %32, label %33, label %35

33:                                               ; preds = %25
  %34 = load i32, ptr %9, align 4, !tbaa !14
  store i32 %34, ptr %4, align 4
  store i32 1, ptr %12, align 4
  br label %36

35:                                               ; preds = %25
  store i32 0, ptr %12, align 4
  br label %36

36:                                               ; preds = %35, %33, %24
  call void @llvm.lifetime.end.p0(i64 4, ptr %11) #3
  %37 = load i32, ptr %12, align 4
  switch i32 %37, label %81 [
    i32 0, label %38
  ]

38:                                               ; preds = %36
  br label %39

39:                                               ; preds = %38, %3
  %40 = load i32, ptr %7, align 4, !tbaa !14
  %41 = load ptr, ptr %5, align 8, !tbaa !4
  %42 = getelementptr inbounds nuw %struct.AVAudioFifo, ptr %41, i32 0, i32 6
  %43 = load i32, ptr %42, align 4, !tbaa !20
  %44 = mul nsw i32 %40, %43
  store i32 %44, ptr %10, align 4, !tbaa !14
  store i32 0, ptr %8, align 4, !tbaa !14
  br label %45

45:                                               ; preds = %71, %39
  %46 = load i32, ptr %8, align 4, !tbaa !14
  %47 = load ptr, ptr %5, align 8, !tbaa !4
  %48 = getelementptr inbounds nuw %struct.AVAudioFifo, ptr %47, i32 0, i32 1
  %49 = load i32, ptr %48, align 8, !tbaa !15
  %50 = icmp slt i32 %46, %49
  br i1 %50, label %51, label %74

51:                                               ; preds = %45
  %52 = load ptr, ptr %5, align 8, !tbaa !4
  %53 = getelementptr inbounds nuw %struct.AVAudioFifo, ptr %52, i32 0, i32 0
  %54 = load ptr, ptr %53, align 8, !tbaa !9
  %55 = load i32, ptr %8, align 4, !tbaa !14
  %56 = sext i32 %55 to i64
  %57 = getelementptr inbounds ptr, ptr %54, i64 %56
  %58 = load ptr, ptr %57, align 8, !tbaa !21
  %59 = load ptr, ptr %6, align 8, !tbaa !28
  %60 = load i32, ptr %8, align 4, !tbaa !14
  %61 = sext i32 %60 to i64
  %62 = getelementptr inbounds ptr, ptr %59, i64 %61
  %63 = load ptr, ptr %62, align 8, !tbaa !29
  %64 = load i32, ptr %10, align 4, !tbaa !14
  %65 = sext i32 %64 to i64
  %66 = call i32 @av_fifo_write(ptr noundef %58, ptr noundef %63, i64 noundef %65)
  store i32 %66, ptr %9, align 4, !tbaa !14
  %67 = load i32, ptr %9, align 4, !tbaa !14
  %68 = icmp slt i32 %67, 0
  br i1 %68, label %69, label %70

69:                                               ; preds = %51
  store i32 -558323010, ptr %4, align 4
  store i32 1, ptr %12, align 4
  br label %81

70:                                               ; preds = %51
  br label %71

71:                                               ; preds = %70
  %72 = load i32, ptr %8, align 4, !tbaa !14
  %73 = add nsw i32 %72, 1
  store i32 %73, ptr %8, align 4, !tbaa !14
  br label %45, !llvm.loop !30

74:                                               ; preds = %45
  %75 = load i32, ptr %7, align 4, !tbaa !14
  %76 = load ptr, ptr %5, align 8, !tbaa !4
  %77 = getelementptr inbounds nuw %struct.AVAudioFifo, ptr %76, i32 0, i32 2
  %78 = load i32, ptr %77, align 4, !tbaa !31
  %79 = add nsw i32 %78, %75
  store i32 %79, ptr %77, align 4, !tbaa !31
  %80 = load i32, ptr %7, align 4, !tbaa !14
  store i32 %80, ptr %4, align 4
  store i32 1, ptr %12, align 4
  br label %81

81:                                               ; preds = %74, %69, %36
  call void @llvm.lifetime.end.p0(i64 4, ptr %10) #3
  call void @llvm.lifetime.end.p0(i64 4, ptr %9) #3
  call void @llvm.lifetime.end.p0(i64 4, ptr %8) #3
  %82 = load i32, ptr %4, align 4
  ret i32 %82
}