; Function Attrs: nounwind uwtable
define i32 @av_audio_fifo_write(ptr noundef captures(none) %0, ptr noundef readonly captures(none) %1, i32 noundef %2) local_unnamed_addr #0 {
  %4 = getelementptr inbounds nuw i8, ptr %0, i64 16
  %5 = load i32, ptr %4, align 8, !tbaa !22
  %6 = getelementptr inbounds nuw i8, ptr %0, i64 12
  %7 = load i32, ptr %6, align 4, !tbaa !24
  %8 = sub nsw i32 %5, %7
  %9 = icmp slt i32 %8, %2
  br i1 %9, label %10, label %18

10:                                               ; preds = %3
  %11 = sub nsw i32 1073741823, %7
  %12 = icmp slt i32 %11, %2
  br i1 %12, label %.thread, label %13

13:                                               ; preds = %10
  %14 = add nsw i32 %7, %2
  %15 = shl nsw i32 %14, 1
  %16 = tail call i32 @av_audio_fifo_realloc(ptr noundef nonnull %0, i32 noundef %15)
  %17 = icmp sgt i32 %16, -1
  br i1 %17, label %18, label %.thread

18:                                               ; preds = %13, %3
  %19 = getelementptr inbounds nuw i8, ptr %0, i64 8
  %20 = load i32, ptr %19, align 8, !tbaa !12
  %21 = icmp sgt i32 %20, 0
  br i1 %21, label %.lr.ph, label %._crit_edge

.lr.ph:                                           ; preds = %18
  %22 = getelementptr inbounds nuw i8, ptr %0, i64 28
  %23 = load i32, ptr %22, align 4, !tbaa !18
  %24 = mul nsw i32 %23, %2
  %25 = sext i32 %24 to i64
  br label %30

26:                                               ; preds = %30
  %indvars.iv.next = add nuw nsw i64 %indvars.iv, 1
  %27 = load i32, ptr %19, align 8, !tbaa !12
  %28 = sext i32 %27 to i64
  %29 = icmp slt i64 %indvars.iv.next, %28
  br i1 %29, label %30, label %._crit_edge, !llvm.loop !25

30:                                               ; preds = %.lr.ph, %26
  %indvars.iv = phi i64 [ 0, %.lr.ph ], [ %indvars.iv.next, %26 ]
  %31 = load ptr, ptr %0, align 8, !tbaa !4
  %32 = getelementptr inbounds nuw ptr, ptr %31, i64 %indvars.iv
  %33 = load ptr, ptr %32, align 8, !tbaa !20
  %34 = getelementptr inbounds nuw ptr, ptr %1, i64 %indvars.iv
  %35 = load ptr, ptr %34, align 8, !tbaa !26
  %36 = tail call i32 @av_fifo_write(ptr noundef %33, ptr noundef %35, i64 noundef %25) #5
  %37 = icmp slt i32 %36, 0
  br i1 %37, label %.thread, label %26

._crit_edge:                                      ; preds = %26, %18
  %38 = load i32, ptr %6, align 4, !tbaa !24
  %39 = add nsw i32 %38, %2
  store i32 %39, ptr %6, align 4, !tbaa !24
  br label %.thread

.thread:                                          ; preds = %30, %10, %13, %._crit_edge
  %.1 = phi i32 [ %2, %._crit_edge ], [ %16, %13 ], [ -22, %10 ], [ -558323010, %30 ]
  ret i32 %.1
}